; ModuleID = 'source-C-CXX/59/365.c'
source_filename = "source-C-CXX/59/365.c"
target datalayout = "e-m:e-p270:32:32-p271:32:32-p272:64:64-i64:64-f80:128-n8:16:32:64-S128"
target triple = "x86_64-pc-linux-gnu"

@.str = private unnamed_addr constant [3 x i8] c"%d\00", align 1
@.str.1 = private unnamed_addr constant [7 x i8] c"%d %d\0A\00", align 1
@str = private unnamed_addr constant [6 x i8] c"empty\00", align 1

; Function Attrs: nofree nounwind sspstrong uwtable
define dso_local i32 @matrix(i32 %0) local_unnamed_addr #0 {
  %2 = sitofp i32 %0 to double
  %3 = tail call double @sqrt(double %2) #6
  %4 = fptosi double %3 to i32
  %5 = icmp slt i32 %4, 3
  br i1 %5, label %19, label %6

6:                                                ; preds = %1
  %7 = srem i32 %0, 3
  %8 = icmp eq i32 %7, 0
  br i1 %8, label %19, label %9

9:                                                ; preds = %6, %13
  %10 = phi i32 [ %11, %13 ], [ 3, %6 ]
  %11 = add nuw i32 %10, 1
  %12 = icmp eq i32 %10, %4
  br i1 %12, label %16, label %13, !llvm.loop !5

13:                                               ; preds = %9
  %14 = srem i32 %0, %11
  %15 = icmp eq i32 %14, 0
  br i1 %15, label %16, label %9, !llvm.loop !5

16:                                               ; preds = %9, %13
  %17 = icmp sge i32 %10, %4
  %18 = zext i1 %17 to i32
  br label %19

19:                                               ; preds = %16, %6, %1
  %20 = phi i32 [ 1, %1 ], [ 0, %6 ], [ %18, %16 ]
  ret i32 %20
}

; Function Attrs: argmemonly mustprogress nofree nosync nounwind willreturn
declare void @llvm.lifetime.start.p0i8(i64 immarg, i8* nocapture) #1

; Function Attrs: mustprogress nofree nounwind willreturn
declare double @sqrt(double) local_unnamed_addr #2

; Function Attrs: argmemonly mustprogress nofree nosync nounwind willreturn
declare void @llvm.lifetime.end.p0i8(i64 immarg, i8* nocapture) #1

; Function Attrs: nofree nounwind sspstrong uwtable
define dso_local void @main() local_unnamed_addr #0 {
  %1 = alloca i32, align 4
  %2 = alloca [10000 x i32], align 16
  %3 = bitcast i32* %1 to i8*
  call void @llvm.lifetime.start.p0i8(i64 4, i8* nonnull %3) #6
  %4 = bitcast [10000 x i32]* %2 to i8*
  call void @llvm.lifetime.start.p0i8(i64 40000, i8* nonnull %4) #6
  call void @llvm.memset.p0i8.i64(i8* noundef nonnull align 16 dereferenceable(40000) %4, i8 0, i64 40000, i1 false)
  %5 = call i32 (i8*, ...) @__isoc99_scanf(i8* getelementptr inbounds ([3 x i8], [3 x i8]* @.str, i64 0, i64 0), i32* nonnull %1)
  %6 = load i32, i32* %1, align 4, !tbaa !7
  %7 = icmp slt i32 %6, 3
  br i1 %7, label %38, label %8

8:                                                ; preds = %0, %31
  %9 = phi i32 [ %32, %31 ], [ 1, %0 ]
  %10 = phi i32 [ %33, %31 ], [ 3, %0 ]
  %11 = sitofp i32 %10 to double
  %12 = call double @sqrt(double %11) #6
  %13 = fptosi double %12 to i32
  %14 = icmp slt i32 %13, 3
  br i1 %14, label %27, label %15

15:                                               ; preds = %8
  %16 = urem i32 %10, 3
  %17 = icmp eq i32 %16, 0
  br i1 %17, label %31, label %18

18:                                               ; preds = %15, %22
  %19 = phi i32 [ %20, %22 ], [ 3, %15 ]
  %20 = add nuw i32 %19, 1
  %21 = icmp eq i32 %19, %13
  br i1 %21, label %25, label %22, !llvm.loop !5

22:                                               ; preds = %18
  %23 = srem i32 %10, %20
  %24 = icmp eq i32 %23, 0
  br i1 %24, label %25, label %18, !llvm.loop !5

25:                                               ; preds = %22, %18
  %26 = icmp slt i32 %19, %13
  br i1 %26, label %31, label %27

27:                                               ; preds = %8, %25
  %28 = add nsw i32 %9, 1
  %29 = sext i32 %9 to i64
  %30 = getelementptr inbounds [10000 x i32], [10000 x i32]* %2, i64 0, i64 %29
  store i32 %10, i32* %30, align 4, !tbaa !7
  br label %31

31:                                               ; preds = %15, %25, %27
  %32 = phi i32 [ %28, %27 ], [ %9, %25 ], [ %9, %15 ]
  %33 = add nuw nsw i32 %10, 2
  %34 = load i32, i32* %1, align 4, !tbaa !7
  %35 = icmp sgt i32 %33, %34
  br i1 %35, label %36, label %8, !llvm.loop !11

36:                                               ; preds = %31
  %37 = icmp sgt i32 %32, 0
  br i1 %37, label %38, label %58

38:                                               ; preds = %0, %36
  %39 = phi i32 [ %32, %36 ], [ 1, %0 ]
  %40 = zext i32 %39 to i64
  br label %41

41:                                               ; preds = %38, %53
  %42 = phi i32 [ 2, %38 ], [ %48, %53 ]
  %43 = phi i64 [ 0, %38 ], [ %46, %53 ]
  %44 = phi i32 [ 0, %38 ], [ %54, %53 ]
  %45 = add nsw i32 %42, 2
  %46 = add nuw nsw i64 %43, 1
  %47 = getelementptr inbounds [10000 x i32], [10000 x i32]* %2, i64 0, i64 %46
  %48 = load i32, i32* %47, align 4, !tbaa !7
  %49 = icmp eq i32 %45, %48
  br i1 %49, label %50, label %53

50:                                               ; preds = %41
  %51 = call i32 (i8*, ...) @printf(i8* nonnull dereferenceable(1) getelementptr inbounds ([7 x i8], [7 x i8]* @.str.1, i64 0, i64 0), i32 %42, i32 %45)
  %52 = add nsw i32 %44, 1
  br label %53

53:                                               ; preds = %41, %50
  %54 = phi i32 [ %52, %50 ], [ %44, %41 ]
  %55 = icmp eq i64 %46, %40
  br i1 %55, label %56, label %41, !llvm.loop !12

56:                                               ; preds = %53
  %57 = icmp eq i32 %54, 0
  br i1 %57, label %58, label %60

58:                                               ; preds = %36, %56
  %59 = call i32 @puts(i8* nonnull dereferenceable(1) getelementptr inbounds ([6 x i8], [6 x i8]* @str, i64 0, i64 0))
  br label %60

60:                                               ; preds = %58, %56
  call void @llvm.lifetime.end.p0i8(i64 40000, i8* nonnull %4) #6
  call void @llvm.lifetime.end.p0i8(i64 4, i8* nonnull %3) #6
  ret void
}

; Function Attrs: argmemonly mustprogress nofree nounwind willreturn writeonly
declare void @llvm.memset.p0i8.i64(i8* nocapture writeonly, i8, i64, i1 immarg) #3

; Function Attrs: nofree nounwind
declare noundef i32 @__isoc99_scanf(i8* nocapture noundef readonly, ...) local_unnamed_addr #4

; Function Attrs: nofree nounwind
declare noundef i32 @printf(i8* nocapture noundef readonly, ...) local_unnamed_addr #4

; Function Attrs: nofree nounwind
declare noundef i32 @puts(i8* nocapture noundef readonly) local_unnamed_addr #5


!llvm.module.flags = !{!0, !1, !2, !3}
!llvm.ident = !{!4}

!0 = !{i32 1, !"wchar_size", i32 4}
!1 = !{i32 7, !"PIC Level", i32 2}
!2 = !{i32 7, !"PIE Level", i32 2}
!3 = !{i32 7, !"uwtable", i32 1}
!4 = !{!"clang version 13.0.0"}
!5 = distinct !{!5, !6}
!6 = !{!"llvm.loop.mustprogress"}
!7 = !{!8, !8, i64 0}
!8 = !{!"int", !9, i64 0}
!9 = !{!"omnipotent char", !10, i64 0}
!10 = !{!"Simple C/C++ TBAA"}
!11 = distinct !{!11, !6}
!12 = distinct !{!12, !6}
